; Function Attrs: mustprogress nounwind uwtable
define internal void @_ZN7rocksdb12_GLOBAL__N_115HashLinkListRep15DynamicIteratorD0Ev(ptr noundef nonnull align 8 dereferenceable(48) %this) unnamed_addr #0 align 2 personality ptr @__gxx_personality_v0 {
entry:
  store ptr getelementptr inbounds ({ [14 x ptr] }, ptr @_ZTVN7rocksdb12_GLOBAL__N_115HashLinkListRep15DynamicIteratorE, i64 0, i32 0, i64 2), ptr %this, align 8
  %skip_list_iter_.i = getelementptr inbounds i8, ptr %this, i64 40
  %0 = load ptr, ptr %skip_list_iter_.i, align 8
  %cmp.not.i.i = icmp eq ptr %0, null
  br i1 %cmp.not.i.i, label %_ZN7rocksdb12_GLOBAL__N_115HashLinkListRep15DynamicIteratorD2Ev.exit, label %_ZNKSt14default_deleteIN7rocksdb8SkipListIPKcRKNS0_11MemTableRep13KeyComparatorEE8IteratorEEclEPS9_.exit.i.i

_ZNKSt14default_deleteIN7rocksdb8SkipListIPKcRKNS0_11MemTableRep13KeyComparatorEE8IteratorEEclEPS9_.exit.i.i: ; preds = %entry
  tail call void @_ZdlPv(ptr noundef nonnull %0) #23
  br label %_ZN7rocksdb12_GLOBAL__N_115HashLinkListRep15DynamicIteratorD2Ev.exit

_ZN7rocksdb12_GLOBAL__N_115HashLinkListRep15DynamicIteratorD2Ev.exit: ; preds = %entry, %_ZNKSt14default_deleteIN7rocksdb8SkipListIPKcRKNS0_11MemTableRep13KeyComparatorEE8IteratorEEclEPS9_.exit.i.i
  tail call void @_ZdlPv(ptr noundef nonnull %this) #23
  ret void
}